; Function Attrs: mustprogress uwtable
define hidden void @_ZN5osgeo4proj22CPLJSonStreamingWriterC2EPFvPKcPvES4_(ptr noundef nonnull align 8 dereferenceable(153) %0, ptr noundef %1, ptr noundef %2) unnamed_addr #0 align 2 personality ptr @__gxx_personality_v0 {
  %4 = alloca %"class.std::allocator", align 1
  tail call void @_ZNSt7__cxx1112basic_stringIcSt11char_traitsIcESaIcEEC1Ev(ptr noundef nonnull align 8 dereferenceable(32) %0) #13
  %5 = getelementptr inbounds i8, ptr %0, i64 32
  store ptr %1, ptr %5, align 8
  %6 = getelementptr inbounds i8, ptr %0, i64 40
  store ptr %2, ptr %6, align 8
  %7 = getelementptr inbounds i8, ptr %0, i64 48
  store i8 1, ptr %7, align 8
  %8 = getelementptr inbounds i8, ptr %0, i64 56
  call void @_ZNSaIcEC1Ev(ptr noundef nonnull align 1 dereferenceable(1) %4) #13
  invoke void @_ZNSt7__cxx1112basic_stringIcSt11char_traitsIcESaIcEEC1EPKcRKS3_(ptr noundef nonnull align 8 dereferenceable(32) %8, ptr noundef nonnull @.str, ptr noundef nonnull align 1 dereferenceable(1) %4)
          to label %9 unwind label %14

9:                                                ; preds = %3
  call void @_ZNSaIcED1Ev(ptr noundef nonnull align 1 dereferenceable(1) %4) #13
  %10 = getelementptr inbounds i8, ptr %0, i64 88
  call void @_ZNSt7__cxx1112basic_stringIcSt11char_traitsIcESaIcEEC1Ev(ptr noundef nonnull align 8 dereferenceable(32) %10) #13
  %11 = getelementptr inbounds i8, ptr %0, i64 120
  store i32 0, ptr %11, align 8
  %12 = getelementptr inbounds i8, ptr %0, i64 124
  store i8 1, ptr %12, align 4
  %13 = getelementptr inbounds i8, ptr %0, i64 128
  call void @llvm.memset.p0.i64(ptr noundef nonnull align 8 dereferenceable(25) %13, i8 0, i64 25, i1 false)
  ret void

14:                                               ; preds = %3
  %15 = landingpad { ptr, i32 }
          cleanup
  call void @_ZNSaIcED1Ev(ptr noundef nonnull align 1 dereferenceable(1) %4) #13
  call void @_ZNSt7__cxx1112basic_stringIcSt11char_traitsIcESaIcEED1Ev(ptr noundef nonnull align 8 dereferenceable(32) %0) #13
  resume { ptr, i32 } %15
}